target datalayout = "e-m:e-p270:32:32-p271:32:32-p272:64:64-i64:64-i128:128-f80:128-n8:16:32:64-S128"
target triple = "x86_64-unknown-linux-gnu"

%class.btCollisionWorld = type <{ ptr, %class.btAlignedObjectArray, ptr, %struct.btDispatcherInfo, ptr, ptr, i8, [7 x i8] }>
%class.btAlignedObjectArray = type <{ %class.btAlignedAllocator, [3 x i8], i32, i32, [4 x i8], ptr, i8, [7 x i8] }>
%class.btAlignedAllocator = type { i8 }
%struct.btDispatcherInfo = type <{ float, i32, i32, float, i8, [7 x i8], ptr, i8, i8, i8, i8, float, i8, [3 x i8], float, i8, [7 x i8] }>
%class.btCollisionObject = type <{ ptr, %class.btTransform, %class.btTransform, %class.btVector3, %class.btVector3, %class.btVector3, i32, float, ptr, ptr, ptr, ptr, i32, i32, i32, i32, i32, float, float, float, float, float, float, float, i32, [4 x i8], ptr, i32, i32, i32, float, float, float, i32, [4 x i8], %class.btAlignedObjectArray.0, i32, %class.btVector3, [4 x i8] }>
%class.btTransform = type { %class.btMatrix3x3, %class.btVector3 }
%class.btMatrix3x3 = type { [3 x %class.btVector3] }
%class.btAlignedObjectArray.0 = type <{ %class.btAlignedAllocator.1, [3 x i8], i32, i32, [4 x i8], ptr, i8, [7 x i8] }>
%class.btAlignedAllocator.1 = type { i8 }
%class.btVector3 = type { [4 x float] }
%struct.btBroadphaseProxy = type <{ ptr, i32, i32, i32, %class.btVector3, %class.btVector3, [4 x i8] }>
%class.btCollisionShape = type { ptr, i32, ptr, i32, i32 }

; Function Attrs: mustprogress uwtable
define linkonce_odr dso_local void @_ZN11btMatrix3x3C2ERKS_(ptr noundef nonnull align 4 dereferenceable(48) %this, ptr noundef nonnull align 4 dereferenceable(48) %other) unnamed_addr #2 comdat align 2 {
entry:
  %this.addr = alloca ptr, align 8
  %other.addr = alloca ptr, align 8
  store ptr %this, ptr %this.addr, align 8
  store ptr %other, ptr %other.addr, align 8
  %this1 = load ptr, ptr %this.addr, align 8
  %m_el = getelementptr inbounds %class.btMatrix3x3, ptr %this1, i32 0, i32 0
  %array.begin = getelementptr inbounds [3 x %class.btVector3], ptr %m_el, i32 0, i32 0
  %arrayctor.end = getelementptr inbounds %class.btVector3, ptr %array.begin, i64 3
  br label %arrayctor.loop

arrayctor.loop:                                   ; preds = %arrayctor.loop, %entry
  %arrayctor.cur = phi ptr [ %array.begin, %entry ], [ %arrayctor.next, %arrayctor.loop ]
  call void @_ZN9btVector3C2Ev(ptr noundef nonnull align 4 dereferenceable(16) %arrayctor.cur)
  %arrayctor.next = getelementptr inbounds %class.btVector3, ptr %arrayctor.cur, i64 1
  %arrayctor.done = icmp eq ptr %arrayctor.next, %arrayctor.end
  br i1 %arrayctor.done, label %arrayctor.cont, label %arrayctor.loop

arrayctor.cont:                                   ; preds = %arrayctor.loop
  %0 = load ptr, ptr %other.addr, align 8
  %m_el2 = getelementptr inbounds %class.btMatrix3x3, ptr %0, i32 0, i32 0
  %arrayidx = getelementptr inbounds [3 x %class.btVector3], ptr %m_el2, i64 0, i64 0
  %m_el3 = getelementptr inbounds %class.btMatrix3x3, ptr %this1, i32 0, i32 0
  %arrayidx4 = getelementptr inbounds [3 x %class.btVector3], ptr %m_el3, i64 0, i64 0
  call void @llvm.memcpy.p0.p0.i64(ptr align 4 %arrayidx4, ptr align 4 %arrayidx, i64 16, i1 false)
  %1 = load ptr, ptr %other.addr, align 8
  %m_el5 = getelementptr inbounds %class.btMatrix3x3, ptr %1, i32 0, i32 0
  %arrayidx6 = getelementptr inbounds [3 x %class.btVector3], ptr %m_el5, i64 0, i64 1
  %m_el7 = getelementptr inbounds %class.btMatrix3x3, ptr %this1, i32 0, i32 0
  %arrayidx8 = getelementptr inbounds [3 x %class.btVector3], ptr %m_el7, i64 0, i64 1
  call void @llvm.memcpy.p0.p0.i64(ptr align 4 %arrayidx8, ptr align 4 %arrayidx6, i64 16, i1 false)
  %2 = load ptr, ptr %other.addr, align 8
  %m_el9 = getelementptr inbounds %class.btMatrix3x3, ptr %2, i32 0, i32 0
  %arrayidx10 = getelementptr inbounds [3 x %class.btVector3], ptr %m_el9, i64 0, i64 2
  %m_el11 = getelementptr inbounds %class.btMatrix3x3, ptr %this1, i32 0, i32 0
  %arrayidx12 = getelementptr inbounds [3 x %class.btVector3], ptr %m_el11, i64 0, i64 2
  call void @llvm.memcpy.p0.p0.i64(ptr align 4 %arrayidx12, ptr align 4 %arrayidx10, i64 16, i1 false)
  ret void
}

; Function Attrs: mustprogress nounwind uwtable
define linkonce_odr dso_local void @_ZN17btCollisionObject19setBroadphaseHandleEP17btBroadphaseProxy(ptr noundef nonnull align 8 dereferenceable(372) %this, ptr noundef %handle) #1 comdat align 2 {
entry:
  %this.addr = alloca ptr, align 8
  %handle.addr = alloca ptr, align 8
  store ptr %this, ptr %this.addr, align 8
  store ptr %handle, ptr %handle.addr, align 8
  %this1 = load ptr, ptr %this.addr, align 8
  %0 = load ptr, ptr %handle.addr, align 8
  %m_broadphaseHandle = getelementptr inbounds %class.btCollisionObject, ptr %this1, i32 0, i32 8
  store ptr %0, ptr %m_broadphaseHandle, align 8
  ret void
}

; Function Attrs: mustprogress nounwind uwtable
define linkonce_odr dso_local noundef i32 @_ZNK16btCollisionShape12getShapeTypeEv(ptr noundef nonnull align 8 dereferenceable(32) %this) #1 comdat align 2 {
entry:
  %this.addr = alloca ptr, align 8
  store ptr %this, ptr %this.addr, align 8
  %this1 = load ptr, ptr %this.addr, align 8
  %m_shapeType = getelementptr inbounds %class.btCollisionShape, ptr %this1, i32 0, i32 1
  %0 = load i32, ptr %m_shapeType, align 8
  ret i32 %0
}

; Function Attrs: mustprogress nounwind uwtable
define linkonce_odr dso_local noundef ptr @_ZN17btCollisionObject17getCollisionShapeEv(ptr noundef nonnull align 8 dereferenceable(372) %this) #1 comdat align 2 {
entry:
  %this.addr = alloca ptr, align 8
  store ptr %this, ptr %this.addr, align 8
  %this1 = load ptr, ptr %this.addr, align 8
  %m_collisionShape = getelementptr inbounds %class.btCollisionObject, ptr %this1, i32 0, i32 9
  %0 = load ptr, ptr %m_collisionShape, align 8
  ret ptr %0
}

; Function Attrs: mustprogress nounwind uwtable
define linkonce_odr dso_local void @_ZN9btVector3C2Ev(ptr noundef nonnull align 4 dereferenceable(16) %this) unnamed_addr #1 comdat align 2 {
entry:
  %this.addr = alloca ptr, align 8
  store ptr %this, ptr %this.addr, align 8
  ret void
}

; Function Attrs: mustprogress uwtable
define linkonce_odr dso_local void @_ZN11btTransformC2ERKS_(ptr noundef nonnull align 4 dereferenceable(64) %this, ptr noundef nonnull align 4 dereferenceable(64) %other) unnamed_addr #2 comdat align 2 {
entry:
  %this.addr = alloca ptr, align 8
  %other.addr = alloca ptr, align 8
  store ptr %this, ptr %this.addr, align 8
  store ptr %other, ptr %other.addr, align 8
  %this1 = load ptr, ptr %this.addr, align 8
  %m_basis = getelementptr inbounds %class.btTransform, ptr %this1, i32 0, i32 0
  %0 = load ptr, ptr %other.addr, align 8
  %m_basis2 = getelementptr inbounds %class.btTransform, ptr %0, i32 0, i32 0
  call void @_ZN11btMatrix3x3C2ERKS_(ptr noundef nonnull align 4 dereferenceable(48) %m_basis, ptr noundef nonnull align 4 dereferenceable(48) %m_basis2)
  %m_origin = getelementptr inbounds %class.btTransform, ptr %this1, i32 0, i32 1
  %1 = load ptr, ptr %other.addr, align 8
  %m_origin3 = getelementptr inbounds %class.btTransform, ptr %1, i32 0, i32 1
  call void @llvm.memcpy.p0.p0.i64(ptr align 4 %m_origin, ptr align 4 %m_origin3, i64 16, i1 false)
  ret void
}

; Function Attrs: mustprogress nounwind uwtable
define linkonce_odr dso_local noundef nonnull align 4 dereferenceable(64) ptr @_ZN17btCollisionObject17getWorldTransformEv(ptr noundef nonnull align 8 dereferenceable(372) %this) #1 comdat align 2 {
entry:
  %this.addr = alloca ptr, align 8
  store ptr %this, ptr %this.addr, align 8
  %this1 = load ptr, ptr %this.addr, align 8
  %m_worldTransform = getelementptr inbounds %class.btCollisionObject, ptr %this1, i32 0, i32 1
  ret ptr %m_worldTransform
}

; Function Attrs: mustprogress nounwind uwtable
define linkonce_odr dso_local noundef ptr @_ZN16btCollisionWorld13getDispatcherEv(ptr noundef nonnull align 8 dereferenceable(121) %this) #1 comdat align 2 {
entry:
  %this.addr = alloca ptr, align 8
  store ptr %this, ptr %this.addr, align 8
  %this1 = load ptr, ptr %this.addr, align 8
  %m_dispatcher1 = getelementptr inbounds %class.btCollisionWorld, ptr %this1, i32 0, i32 2
  %0 = load ptr, ptr %m_dispatcher1, align 8
  ret ptr %0
}

; Function Attrs: mustprogress nounwind uwtable
define linkonce_odr dso_local noundef ptr @_ZN16btCollisionWorld13getBroadphaseEv(ptr noundef nonnull align 8 dereferenceable(121) %this) #1 comdat align 2 {
entry:
  %this.addr = alloca ptr, align 8
  store ptr %this, ptr %this.addr, align 8
  %this1 = load ptr, ptr %this.addr, align 8
  %m_broadphasePairCache = getelementptr inbounds %class.btCollisionWorld, ptr %this1, i32 0, i32 4
  %0 = load ptr, ptr %m_broadphasePairCache, align 8
  ret ptr %0
}

; Function Attrs: mustprogress nounwind uwtable
define linkonce_odr dso_local noundef ptr @_ZN17btCollisionObject19getBroadphaseHandleEv(ptr noundef nonnull align 8 dereferenceable(372) %this) #1 comdat align 2 {
entry:
  %this.addr = alloca ptr, align 8
  store ptr %this, ptr %this.addr, align 8
  %this1 = load ptr, ptr %this.addr, align 8
  %m_broadphaseHandle = getelementptr inbounds %class.btCollisionObject, ptr %this1, i32 0, i32 8
  %0 = load ptr, ptr %m_broadphaseHandle, align 8
  ret ptr %0
}

; Function Attrs: mustprogress uwtable
define dso_local void @_ZN16btCollisionWorld22refreshBroadphaseProxyEP17btCollisionObject(ptr noundef nonnull align 8 dereferenceable(121) %this, ptr noundef %collisionObject) unnamed_addr #2 align 2 {
entry:
  %this.addr = alloca ptr, align 8
  %collisionObject.addr = alloca ptr, align 8
  %collisionFilterGroup = alloca i32, align 4
  %collisionFilterMask = alloca i32, align 4
  %trans = alloca %class.btTransform, align 4
  %minAabb = alloca %class.btVector3, align 4
  %maxAabb = alloca %class.btVector3, align 4
  %type = alloca i32, align 4
  store ptr %this, ptr %this.addr, align 8
  store ptr %collisionObject, ptr %collisionObject.addr, align 8
  %this1 = load ptr, ptr %this.addr, align 8
  %0 = load ptr, ptr %collisionObject.addr, align 8
  %call = call noundef ptr @_ZN17btCollisionObject19getBroadphaseHandleEv(ptr noundef nonnull align 8 dereferenceable(372) %0)
  %tobool = icmp ne ptr %call, null
  br i1 %tobool, label %if.then, label %if.end

if.then:                                          ; preds = %entry
  %1 = load ptr, ptr %collisionObject.addr, align 8
  %call2 = call noundef ptr @_ZN17btCollisionObject19getBroadphaseHandleEv(ptr noundef nonnull align 8 dereferenceable(372) %1)
  %m_collisionFilterGroup = getelementptr inbounds %struct.btBroadphaseProxy, ptr %call2, i32 0, i32 1
  %2 = load i32, ptr %m_collisionFilterGroup, align 8
  store i32 %2, ptr %collisionFilterGroup, align 4
  %3 = load ptr, ptr %collisionObject.addr, align 8
  %call3 = call noundef ptr @_ZN17btCollisionObject19getBroadphaseHandleEv(ptr noundef nonnull align 8 dereferenceable(372) %3)
  %m_collisionFilterMask = getelementptr inbounds %struct.btBroadphaseProxy, ptr %call3, i32 0, i32 2
  %4 = load i32, ptr %m_collisionFilterMask, align 4
  store i32 %4, ptr %collisionFilterMask, align 4
  %call4 = call noundef ptr @_ZN16btCollisionWorld13getBroadphaseEv(ptr noundef nonnull align 8 dereferenceable(121) %this1)
  %5 = load ptr, ptr %collisionObject.addr, align 8
  %call5 = call noundef ptr @_ZN17btCollisionObject19getBroadphaseHandleEv(ptr noundef nonnull align 8 dereferenceable(372) %5)
  %call6 = call noundef ptr @_ZN16btCollisionWorld13getDispatcherEv(ptr noundef nonnull align 8 dereferenceable(121) %this1)
  %vtable = load ptr, ptr %call4, align 8
  %vfn = getelementptr inbounds ptr, ptr %vtable, i64 3
  %6 = load ptr, ptr %vfn, align 8
  call void %6(ptr noundef nonnull align 8 dereferenceable(8) %call4, ptr noundef %call5, ptr noundef %call6)
  %7 = load ptr, ptr %collisionObject.addr, align 8
  %call7 = call noundef nonnull align 4 dereferenceable(64) ptr @_ZN17btCollisionObject17getWorldTransformEv(ptr noundef nonnull align 8 dereferenceable(372) %7)
  call void @_ZN11btTransformC2ERKS_(ptr noundef nonnull align 4 dereferenceable(64) %trans, ptr noundef nonnull align 4 dereferenceable(64) %call7)
  call void @_ZN9btVector3C2Ev(ptr noundef nonnull align 4 dereferenceable(16) %minAabb)
  call void @_ZN9btVector3C2Ev(ptr noundef nonnull align 4 dereferenceable(16) %maxAabb)
  %8 = load ptr, ptr %collisionObject.addr, align 8
  %call8 = call noundef ptr @_ZN17btCollisionObject17getCollisionShapeEv(ptr noundef nonnull align 8 dereferenceable(372) %8)
  %vtable9 = load ptr, ptr %call8, align 8
  %vfn10 = getelementptr inbounds ptr, ptr %vtable9, i64 2
  %9 = load ptr, ptr %vfn10, align 8
  call void %9(ptr noundef nonnull align 8 dereferenceable(32) %call8, ptr noundef nonnull align 4 dereferenceable(64) %trans, ptr noundef nonnull align 4 dereferenceable(16) %minAabb, ptr noundef nonnull align 4 dereferenceable(16) %maxAabb)
  %10 = load ptr, ptr %collisionObject.addr, align 8
  %call11 = call noundef ptr @_ZN17btCollisionObject17getCollisionShapeEv(ptr noundef nonnull align 8 dereferenceable(372) %10)
  %call12 = call noundef i32 @_ZNK16btCollisionShape12getShapeTypeEv(ptr noundef nonnull align 8 dereferenceable(32) %call11)
  store i32 %call12, ptr %type, align 4
  %11 = load ptr, ptr %collisionObject.addr, align 8
  %call13 = call noundef ptr @_ZN16btCollisionWorld13getBroadphaseEv(ptr noundef nonnull align 8 dereferenceable(121) %this1)
  %12 = load i32, ptr %type, align 4
  %13 = load ptr, ptr %collisionObject.addr, align 8
  %14 = load i32, ptr %collisionFilterGroup, align 4
  %15 = load i32, ptr %collisionFilterMask, align 4
  %m_dispatcher1 = getelementptr inbounds %class.btCollisionWorld, ptr %this1, i32 0, i32 2
  %16 = load ptr, ptr %m_dispatcher1, align 8
  %vtable14 = load ptr, ptr %call13, align 8
  %vfn15 = getelementptr inbounds ptr, ptr %vtable14, i64 2
  %17 = load ptr, ptr %vfn15, align 8
  %call16 = call noundef ptr %17(ptr noundef nonnull align 8 dereferenceable(8) %call13, ptr noundef nonnull align 4 dereferenceable(16) %minAabb, ptr noundef nonnull align 4 dereferenceable(16) %maxAabb, i32 noundef %12, ptr noundef %13, i32 noundef %14, i32 noundef %15, ptr noundef %16)
  call void @_ZN17btCollisionObject19setBroadphaseHandleEP17btBroadphaseProxy(ptr noundef nonnull align 8 dereferenceable(372) %11, ptr noundef %call16)
  br label %if.end

if.end:                                           ; preds = %if.then, %entry
  ret void
}