; Function Attrs: mustprogress uwtable
define dso_local void @_ZN16btCollisionWorld22refreshBroadphaseProxyEP17btCollisionObject(ptr nocapture noundef nonnull readonly align 8 dereferenceable(121) %this, ptr noundef %collisionObject) unnamed_addr #4 align 2 {
entry:
  %trans = alloca %class.btTransform, align 4
  %minAabb = alloca %class.btVector3, align 4
  %maxAabb = alloca %class.btVector3, align 4
  %m_broadphaseHandle.i = getelementptr inbounds i8, ptr %collisionObject, i64 192
  %0 = load ptr, ptr %m_broadphaseHandle.i, align 8
  %tobool.not = icmp eq ptr %0, null
  br i1 %tobool.not, label %if.end, label %if.then

if.then:                                          ; preds = %entry
  %m_collisionFilterGroup = getelementptr inbounds i8, ptr %0, i64 8
  %1 = load i32, ptr %m_collisionFilterGroup, align 8
  %m_collisionFilterMask = getelementptr inbounds i8, ptr %0, i64 12
  %2 = load i32, ptr %m_collisionFilterMask, align 4
  %m_broadphasePairCache.i = getelementptr inbounds i8, ptr %this, i64 104
  %3 = load ptr, ptr %m_broadphasePairCache.i, align 8
  %m_dispatcher1.i = getelementptr inbounds i8, ptr %this, i64 40
  %4 = load ptr, ptr %m_dispatcher1.i, align 8
  %vtable = load ptr, ptr %3, align 8
  %vfn = getelementptr inbounds i8, ptr %vtable, i64 24
  %5 = load ptr, ptr %vfn, align 8
  tail call void %5(ptr noundef nonnull align 8 dereferenceable(8) %3, ptr noundef nonnull %0, ptr noundef %4)
  %m_worldTransform.i = getelementptr inbounds i8, ptr %collisionObject, i64 8
  call void @llvm.memcpy.p0.p0.i64(ptr noundef nonnull align 4 dereferenceable(16) %trans, ptr noundef nonnull align 4 dereferenceable(16) %m_worldTransform.i, i64 16, i1 false)
  %arrayidx6.i.i = getelementptr inbounds i8, ptr %collisionObject, i64 24
  %arrayidx8.i.i = getelementptr inbounds i8, ptr %trans, i64 16
  call void @llvm.memcpy.p0.p0.i64(ptr noundef nonnull align 4 dereferenceable(16) %arrayidx8.i.i, ptr noundef nonnull align 4 dereferenceable(16) %arrayidx6.i.i, i64 16, i1 false)
  %arrayidx10.i.i = getelementptr inbounds i8, ptr %collisionObject, i64 40
  %arrayidx12.i.i = getelementptr inbounds i8, ptr %trans, i64 32
  call void @llvm.memcpy.p0.p0.i64(ptr noundef nonnull align 4 dereferenceable(16) %arrayidx12.i.i, ptr noundef nonnull align 4 dereferenceable(16) %arrayidx10.i.i, i64 16, i1 false)
  %m_origin.i = getelementptr inbounds i8, ptr %trans, i64 48
  %m_origin3.i = getelementptr inbounds i8, ptr %collisionObject, i64 56
  call void @llvm.memcpy.p0.p0.i64(ptr noundef nonnull align 4 dereferenceable(16) %m_origin.i, ptr noundef nonnull align 4 dereferenceable(16) %m_origin3.i, i64 16, i1 false)
  %m_collisionShape.i = getelementptr inbounds i8, ptr %collisionObject, i64 200
  %6 = load ptr, ptr %m_collisionShape.i, align 8
  %vtable9 = load ptr, ptr %6, align 8
  %vfn10 = getelementptr inbounds i8, ptr %vtable9, i64 16
  %7 = load ptr, ptr %vfn10, align 8
  call void %7(ptr noundef nonnull align 8 dereferenceable(32) %6, ptr noundef nonnull align 4 dereferenceable(64) %trans, ptr noundef nonnull align 4 dereferenceable(16) %minAabb, ptr noundef nonnull align 4 dereferenceable(16) %maxAabb)
  %8 = load ptr, ptr %m_collisionShape.i, align 8
  %m_shapeType.i = getelementptr inbounds i8, ptr %8, i64 8
  %9 = load i32, ptr %m_shapeType.i, align 8
  %10 = load ptr, ptr %m_broadphasePairCache.i, align 8
  %11 = load ptr, ptr %m_dispatcher1.i, align 8
  %vtable14 = load ptr, ptr %10, align 8
  %vfn15 = getelementptr inbounds i8, ptr %vtable14, i64 16
  %12 = load ptr, ptr %vfn15, align 8
  %call16 = call noundef ptr %12(ptr noundef nonnull align 8 dereferenceable(8) %10, ptr noundef nonnull align 4 dereferenceable(16) %minAabb, ptr noundef nonnull align 4 dereferenceable(16) %maxAabb, i32 noundef %9, ptr noundef nonnull %collisionObject, i32 noundef %1, i32 noundef %2, ptr noundef %11)
  store ptr %call16, ptr %m_broadphaseHandle.i, align 8
  br label %if.end

if.end:                                           ; preds = %if.then, %entry
  ret void
}